target datalayout = "e-m:e-p270:32:32-p271:32:32-p272:64:64-i64:64-i128:128-f80:128-n8:16:32:64-S128"
target triple = "x86_64-unknown-linux-gnu"

@.str.1 = private unnamed_addr constant [33 x i8] c"Integer multiplication overflow.\00", align 1
@_ZTIN7Iex_3_211OverflowExcE = external constant ptr

; Function Attrs: mustprogress nounwind uwtable
define linkonce_odr hidden noundef i64 @_ZNSt14numeric_limitsImE3maxEv() #4 comdat align 2 {
entry:
  ret i64 -1
}

; Function Attrs: mustprogress uwtable
define linkonce_odr hidden noundef i64 @_ZN7Imf_3_26uiMultImEET_S1_S1_(i64 noundef %a, i64 noundef %b) #6 comdat personality ptr @__gxx_personality_v0 {
entry:
  %a.addr = alloca i64, align 8
  %b.addr = alloca i64, align 8
  %exn.slot = alloca ptr, align 8
  %ehselector.slot = alloca i32, align 4
  store i64 %a, ptr %a.addr, align 8
  store i64 %b, ptr %b.addr, align 8
  br label %do.body

do.body:                                          ; preds = %entry
  br label %do.end

do.end:                                           ; preds = %do.body
  %0 = load i64, ptr %a.addr, align 8
  %cmp = icmp ugt i64 %0, 0
  br i1 %cmp, label %land.lhs.true, label %if.end

land.lhs.true:                                    ; preds = %do.end
  %1 = load i64, ptr %b.addr, align 8
  %call = call noundef i64 @_ZNSt14numeric_limitsImE3maxEv() #3
  %2 = load i64, ptr %a.addr, align 8
  %div = udiv i64 %call, %2
  %cmp1 = icmp ugt i64 %1, %div
  br i1 %cmp1, label %if.then, label %if.end

if.then:                                          ; preds = %land.lhs.true
  %exception = call ptr @__cxa_allocate_exception(i64 72) #3
  invoke void @_ZN7Iex_3_211OverflowExcC1EPKc(ptr noundef nonnull align 8 dereferenceable(72) %exception, ptr noundef @.str.1)
          to label %invoke.cont unwind label %lpad

invoke.cont:                                      ; preds = %if.then
  call void @__cxa_throw(ptr %exception, ptr @_ZTIN7Iex_3_211OverflowExcE, ptr @_ZN7Iex_3_211OverflowExcD1Ev) #12
  unreachable

lpad:                                             ; preds = %if.then
  %3 = landingpad { ptr, i32 }
          cleanup
  %4 = extractvalue { ptr, i32 } %3, 0
  store ptr %4, ptr %exn.slot, align 8
  %5 = extractvalue { ptr, i32 } %3, 1
  store i32 %5, ptr %ehselector.slot, align 4
  call void @__cxa_free_exception(ptr %exception) #3
  br label %eh.resume

if.end:                                           ; preds = %land.lhs.true, %do.end
  %6 = load i64, ptr %a.addr, align 8
  %7 = load i64, ptr %b.addr, align 8
  %mul = mul i64 %6, %7
  ret i64 %mul

eh.resume:                                        ; preds = %lpad
  %exn = load ptr, ptr %exn.slot, align 8
  %sel = load i32, ptr %ehselector.slot, align 4
  %lpad.val = insertvalue { ptr, i32 } poison, ptr %exn, 0
  %lpad.val2 = insertvalue { ptr, i32 } %lpad.val, i32 %sel, 1
  resume { ptr, i32 } %lpad.val2
}

; Function Attrs: mustprogress uwtable
define noundef ptr @_ZN7Imf_3_217newTileCompressorENS_11CompressionEmmRKNS_6HeaderE(i32 noundef %c, i64 noundef %tileLineSize, i64 noundef %numTileLines, ptr noundef nonnull align 1 %hdr) #6 personality ptr @__gxx_personality_v0 {
entry:
  %retval = alloca ptr, align 8
  %c.addr = alloca i32, align 4
  %tileLineSize.addr = alloca i64, align 8
  %numTileLines.addr = alloca i64, align 8
  %hdr.addr = alloca ptr, align 8
  %exn.slot = alloca ptr, align 8
  %ehselector.slot = alloca i32, align 4
  store i32 %c, ptr %c.addr, align 4
  store i64 %tileLineSize, ptr %tileLineSize.addr, align 8
  store i64 %numTileLines, ptr %numTileLines.addr, align 8
  store ptr %hdr, ptr %hdr.addr, align 8
  %0 = load i32, ptr %c.addr, align 4
  switch i32 %0, label %sw.default [
    i32 1, label %sw.bb
    i32 2, label %sw.bb3
    i32 3, label %sw.bb3
    i32 4, label %sw.bb7
    i32 5, label %sw.bb11
    i32 6, label %sw.bb15
    i32 7, label %sw.bb19
    i32 8, label %sw.bb23
    i32 9, label %sw.bb28
  ]

sw.bb:                                            ; preds = %entry
  %call = call noalias noundef nonnull ptr @_Znwm(i64 noundef 40) #10
  %1 = load ptr, ptr %hdr.addr, align 8
  %2 = load i64, ptr %tileLineSize.addr, align 8
  %3 = load i64, ptr %numTileLines.addr, align 8
  %call1 = invoke noundef i64 @_ZN7Imf_3_26uiMultImEET_S1_S1_(i64 noundef %2, i64 noundef %3)
          to label %invoke.cont unwind label %lpad

invoke.cont:                                      ; preds = %sw.bb
  invoke void @_ZN7Imf_3_213RleCompressorC1ERKNS_6HeaderEm(ptr noundef nonnull align 8 dereferenceable(40) %call, ptr noundef nonnull align 1 %1, i64 noundef %call1)
          to label %invoke.cont2 unwind label %lpad

invoke.cont2:                                     ; preds = %invoke.cont
  store ptr %call, ptr %retval, align 8
  br label %return

lpad:                                             ; preds = %invoke.cont, %sw.bb
  %4 = landingpad { ptr, i32 }
          cleanup
  %5 = extractvalue { ptr, i32 } %4, 0
  store ptr %5, ptr %exn.slot, align 8
  %6 = extractvalue { ptr, i32 } %4, 1
  store i32 %6, ptr %ehselector.slot, align 4
  call void @_ZdlPv(ptr noundef %call) #11
  br label %eh.resume

sw.bb3:                                           ; preds = %entry, %entry
  %call4 = call noalias noundef nonnull ptr @_Znwm(i64 noundef 56) #10
  %7 = load ptr, ptr %hdr.addr, align 8
  %8 = load i64, ptr %tileLineSize.addr, align 8
  %9 = load i64, ptr %numTileLines.addr, align 8
  invoke void @_ZN7Imf_3_213ZipCompressorC1ERKNS_6HeaderEmm(ptr noundef nonnull align 8 dereferenceable(56) %call4, ptr noundef nonnull align 1 %7, i64 noundef %8, i64 noundef %9)
          to label %invoke.cont6 unwind label %lpad5

invoke.cont6:                                     ; preds = %sw.bb3
  store ptr %call4, ptr %retval, align 8
  br label %return

lpad5:                                            ; preds = %sw.bb3
  %10 = landingpad { ptr, i32 }
          cleanup
  %11 = extractvalue { ptr, i32 } %10, 0
  store ptr %11, ptr %exn.slot, align 8
  %12 = extractvalue { ptr, i32 } %10, 1
  store i32 %12, ptr %ehselector.slot, align 4
  call void @_ZdlPv(ptr noundef %call4) #11
  br label %eh.resume

sw.bb7:                                           ; preds = %entry
  %call8 = call noalias noundef nonnull ptr @_Znwm(i64 noundef 88) #10
  %13 = load ptr, ptr %hdr.addr, align 8
  %14 = load i64, ptr %tileLineSize.addr, align 8
  %15 = load i64, ptr %numTileLines.addr, align 8
  invoke void @_ZN7Imf_3_213PizCompressorC1ERKNS_6HeaderEmm(ptr noundef nonnull align 8 dereferenceable(84) %call8, ptr noundef nonnull align 1 %13, i64 noundef %14, i64 noundef %15)
          to label %invoke.cont10 unwind label %lpad9

invoke.cont10:                                    ; preds = %sw.bb7
  store ptr %call8, ptr %retval, align 8
  br label %return

lpad9:                                            ; preds = %sw.bb7
  %16 = landingpad { ptr, i32 }
          cleanup
  %17 = extractvalue { ptr, i32 } %16, 0
  store ptr %17, ptr %exn.slot, align 8
  %18 = extractvalue { ptr, i32 } %16, 1
  store i32 %18, ptr %ehselector.slot, align 4
  call void @_ZdlPv(ptr noundef %call8) #11
  br label %eh.resume

sw.bb11:                                          ; preds = %entry
  %call12 = call noalias noundef nonnull ptr @_Znwm(i64 noundef 64) #10
  %19 = load ptr, ptr %hdr.addr, align 8
  %20 = load i64, ptr %tileLineSize.addr, align 8
  %21 = load i64, ptr %numTileLines.addr, align 8
  invoke void @_ZN7Imf_3_215Pxr24CompressorC1ERKNS_6HeaderEmm(ptr noundef nonnull align 8 dereferenceable(60) %call12, ptr noundef nonnull align 1 %19, i64 noundef %20, i64 noundef %21)
          to label %invoke.cont14 unwind label %lpad13

invoke.cont14:                                    ; preds = %sw.bb11
  store ptr %call12, ptr %retval, align 8
  br label %return

lpad13:                                           ; preds = %sw.bb11
  %22 = landingpad { ptr, i32 }
          cleanup
  %23 = extractvalue { ptr, i32 } %22, 0
  store ptr %23, ptr %exn.slot, align 8
  %24 = extractvalue { ptr, i32 } %22, 1
  store i32 %24, ptr %ehselector.slot, align 4
  call void @_ZdlPv(ptr noundef %call12) #11
  br label %eh.resume

sw.bb15:                                          ; preds = %entry
  %call16 = call noalias noundef nonnull ptr @_Znwm(i64 noundef 88) #10
  %25 = load ptr, ptr %hdr.addr, align 8
  %26 = load i64, ptr %tileLineSize.addr, align 8
  %27 = load i64, ptr %numTileLines.addr, align 8
  invoke void @_ZN7Imf_3_213B44CompressorC1ERKNS_6HeaderEmmb(ptr noundef nonnull align 8 dereferenceable(84) %call16, ptr noundef nonnull align 1 %25, i64 noundef %26, i64 noundef %27, i1 noundef zeroext false)
          to label %invoke.cont18 unwind label %lpad17

invoke.cont18:                                    ; preds = %sw.bb15
  store ptr %call16, ptr %retval, align 8
  br label %return

lpad17:                                           ; preds = %sw.bb15
  %28 = landingpad { ptr, i32 }
          cleanup
  %29 = extractvalue { ptr, i32 } %28, 0
  store ptr %29, ptr %exn.slot, align 8
  %30 = extractvalue { ptr, i32 } %28, 1
  store i32 %30, ptr %ehselector.slot, align 4
  call void @_ZdlPv(ptr noundef %call16) #11
  br label %eh.resume

sw.bb19:                                          ; preds = %entry
  %call20 = call noalias noundef nonnull ptr @_Znwm(i64 noundef 88) #10
  %31 = load ptr, ptr %hdr.addr, align 8
  %32 = load i64, ptr %tileLineSize.addr, align 8
  %33 = load i64, ptr %numTileLines.addr, align 8
  invoke void @_ZN7Imf_3_213B44CompressorC1ERKNS_6HeaderEmmb(ptr noundef nonnull align 8 dereferenceable(84) %call20, ptr noundef nonnull align 1 %31, i64 noundef %32, i64 noundef %33, i1 noundef zeroext true)
          to label %invoke.cont22 unwind label %lpad21

invoke.cont22:                                    ; preds = %sw.bb19
  store ptr %call20, ptr %retval, align 8
  br label %return

lpad21:                                           ; preds = %sw.bb19
  %34 = landingpad { ptr, i32 }
          cleanup
  %35 = extractvalue { ptr, i32 } %34, 0
  store ptr %35, ptr %exn.slot, align 8
  %36 = extractvalue { ptr, i32 } %34, 1
  store i32 %36, ptr %ehselector.slot, align 4
  call void @_ZdlPv(ptr noundef %call20) #11
  br label %eh.resume

sw.bb23:                                          ; preds = %entry
  %call24 = call noalias noundef nonnull ptr @_Znwm(i64 noundef 296) #10
  %37 = load ptr, ptr %hdr.addr, align 8
  %38 = load i64, ptr %tileLineSize.addr, align 8
  %conv = trunc i64 %38 to i32
  %39 = load i64, ptr %numTileLines.addr, align 8
  %conv25 = trunc i64 %39 to i32
  invoke void @_ZN7Imf_3_213DwaCompressorC1ERKNS_6HeaderEiiNS0_13AcCompressionE(ptr noundef nonnull align 8 dereferenceable(296) %call24, ptr noundef nonnull align 1 %37, i32 noundef %conv, i32 noundef %conv25, i32 noundef 1)
          to label %invoke.cont27 unwind label %lpad26

invoke.cont27:                                    ; preds = %sw.bb23
  store ptr %call24, ptr %retval, align 8
  br label %return

lpad26:                                           ; preds = %sw.bb23
  %40 = landingpad { ptr, i32 }
          cleanup
  %41 = extractvalue { ptr, i32 } %40, 0
  store ptr %41, ptr %exn.slot, align 8
  %42 = extractvalue { ptr, i32 } %40, 1
  store i32 %42, ptr %ehselector.slot, align 4
  call void @_ZdlPv(ptr noundef %call24) #11
  br label %eh.resume

sw.bb28:                                          ; preds = %entry
  %call29 = call noalias noundef nonnull ptr @_Znwm(i64 noundef 296) #10
  %43 = load ptr, ptr %hdr.addr, align 8
  %44 = load i64, ptr %tileLineSize.addr, align 8
  %conv30 = trunc i64 %44 to i32
  %45 = load i64, ptr %numTileLines.addr, align 8
  %conv31 = trunc i64 %45 to i32
  invoke void @_ZN7Imf_3_213DwaCompressorC1ERKNS_6HeaderEiiNS0_13AcCompressionE(ptr noundef nonnull align 8 dereferenceable(296) %call29, ptr noundef nonnull align 1 %43, i32 noundef %conv30, i32 noundef %conv31, i32 noundef 0)
          to label %invoke.cont33 unwind label %lpad32

invoke.cont33:                                    ; preds = %sw.bb28
  store ptr %call29, ptr %retval, align 8
  br label %return

lpad32:                                           ; preds = %sw.bb28
  %46 = landingpad { ptr, i32 }
          cleanup
  %47 = extractvalue { ptr, i32 } %46, 0
  store ptr %47, ptr %exn.slot, align 8
  %48 = extractvalue { ptr, i32 } %46, 1
  store i32 %48, ptr %ehselector.slot, align 4
  call void @_ZdlPv(ptr noundef %call29) #11
  br label %eh.resume

sw.default:                                       ; preds = %entry
  store ptr null, ptr %retval, align 8
  br label %return

return:                                           ; preds = %sw.default, %invoke.cont33, %invoke.cont27, %invoke.cont22, %invoke.cont18, %invoke.cont14, %invoke.cont10, %invoke.cont6, %invoke.cont2
  %49 = load ptr, ptr %retval, align 8
  ret ptr %49

eh.resume:                                        ; preds = %lpad32, %lpad26, %lpad21, %lpad17, %lpad13, %lpad9, %lpad5, %lpad
  %exn = load ptr, ptr %exn.slot, align 8
  %sel = load i32, ptr %ehselector.slot, align 4
  %lpad.val = insertvalue { ptr, i32 } poison, ptr %exn, 0
  %lpad.val34 = insertvalue { ptr, i32 } %lpad.val, i32 %sel, 1
  resume { ptr, i32 } %lpad.val34
}