; Function Attrs: mustprogress uwtable
define noundef ptr @_ZN7Imf_3_217newTileCompressorENS_11CompressionEmmRKNS_6HeaderE(i32 noundef %c, i64 noundef %tileLineSize, i64 noundef %numTileLines, ptr noundef nonnull align 1 %hdr) local_unnamed_addr #7 personality ptr @__gxx_personality_v0 {
entry:
  switch i32 %c, label %return [
    i32 1, label %sw.bb
    i32 2, label %sw.bb3
    i32 3, label %sw.bb3
    i32 4, label %sw.bb7
    i32 5, label %sw.bb11
    i32 6, label %sw.bb15
    i32 7, label %sw.bb19
    i32 8, label %sw.bb23
    i32 9, label %sw.bb28
  ]

sw.bb:                                            ; preds = %entry
  %call = tail call noalias noundef nonnull dereferenceable(40) ptr @_Znwm(i64 noundef 40) #13
  %cmp.not.i = icmp eq i64 %tileLineSize, 0
  br i1 %cmp.not.i, label %invoke.cont, label %land.lhs.true.i

land.lhs.true.i:                                  ; preds = %sw.bb
  %mul4.i = tail call { i64, i1 } @llvm.umul.with.overflow.i64(i64 %tileLineSize, i64 %numTileLines)
  %mul.ov.i = extractvalue { i64, i1 } %mul4.i, 1
  br i1 %mul.ov.i, label %if.then.i, label %invoke.cont

if.then.i:                                        ; preds = %land.lhs.true.i
  %exception.i = tail call ptr @__cxa_allocate_exception(i64 72) #15
  invoke void @_ZN7Iex_3_211OverflowExcC1EPKc(ptr noundef nonnull align 8 dereferenceable(72) %exception.i, ptr noundef nonnull @.str.1)
          to label %invoke.cont.i unwind label %lpad.i

invoke.cont.i:                                    ; preds = %if.then.i
  invoke void @__cxa_throw(ptr nonnull %exception.i, ptr nonnull @_ZTIN7Iex_3_211OverflowExcE, ptr nonnull @_ZN7Iex_3_211OverflowExcD1Ev) #16
          to label %.noexc unwind label %lpad

.noexc:                                           ; preds = %invoke.cont.i
  unreachable

lpad.i:                                           ; preds = %if.then.i
  %0 = landingpad { ptr, i32 }
          cleanup
  tail call void @__cxa_free_exception(ptr %exception.i) #15
  br label %eh.resume

invoke.cont:                                      ; preds = %land.lhs.true.i, %sw.bb
  %mul.i = mul i64 %numTileLines, %tileLineSize
  invoke void @_ZN7Imf_3_213RleCompressorC1ERKNS_6HeaderEm(ptr noundef nonnull align 8 dereferenceable(40) %call, ptr noundef nonnull align 1 %hdr, i64 noundef %mul.i)
          to label %return unwind label %lpad

lpad:                                             ; preds = %invoke.cont.i, %invoke.cont
  %1 = landingpad { ptr, i32 }
          cleanup
  br label %eh.resume

sw.bb3:                                           ; preds = %entry, %entry
  %call4 = tail call noalias noundef nonnull dereferenceable(56) ptr @_Znwm(i64 noundef 56) #13
  invoke void @_ZN7Imf_3_213ZipCompressorC1ERKNS_6HeaderEmm(ptr noundef nonnull align 8 dereferenceable(56) %call4, ptr noundef nonnull align 1 %hdr, i64 noundef %tileLineSize, i64 noundef %numTileLines)
          to label %return unwind label %lpad5

lpad5:                                            ; preds = %sw.bb3
  %2 = landingpad { ptr, i32 }
          cleanup
  br label %eh.resume

sw.bb7:                                           ; preds = %entry
  %call8 = tail call noalias noundef nonnull dereferenceable(88) ptr @_Znwm(i64 noundef 88) #13
  invoke void @_ZN7Imf_3_213PizCompressorC1ERKNS_6HeaderEmm(ptr noundef nonnull align 8 dereferenceable(84) %call8, ptr noundef nonnull align 1 %hdr, i64 noundef %tileLineSize, i64 noundef %numTileLines)
          to label %return unwind label %lpad9

lpad9:                                            ; preds = %sw.bb7
  %3 = landingpad { ptr, i32 }
          cleanup
  br label %eh.resume

sw.bb11:                                          ; preds = %entry
  %call12 = tail call noalias noundef nonnull dereferenceable(64) ptr @_Znwm(i64 noundef 64) #13
  invoke void @_ZN7Imf_3_215Pxr24CompressorC1ERKNS_6HeaderEmm(ptr noundef nonnull align 8 dereferenceable(60) %call12, ptr noundef nonnull align 1 %hdr, i64 noundef %tileLineSize, i64 noundef %numTileLines)
          to label %return unwind label %lpad13

lpad13:                                           ; preds = %sw.bb11
  %4 = landingpad { ptr, i32 }
          cleanup
  br label %eh.resume

sw.bb15:                                          ; preds = %entry
  %call16 = tail call noalias noundef nonnull dereferenceable(88) ptr @_Znwm(i64 noundef 88) #13
  invoke void @_ZN7Imf_3_213B44CompressorC1ERKNS_6HeaderEmmb(ptr noundef nonnull align 8 dereferenceable(84) %call16, ptr noundef nonnull align 1 %hdr, i64 noundef %tileLineSize, i64 noundef %numTileLines, i1 noundef zeroext false)
          to label %return unwind label %lpad17

lpad17:                                           ; preds = %sw.bb15
  %5 = landingpad { ptr, i32 }
          cleanup
  br label %eh.resume

sw.bb19:                                          ; preds = %entry
  %call20 = tail call noalias noundef nonnull dereferenceable(88) ptr @_Znwm(i64 noundef 88) #13
  invoke void @_ZN7Imf_3_213B44CompressorC1ERKNS_6HeaderEmmb(ptr noundef nonnull align 8 dereferenceable(84) %call20, ptr noundef nonnull align 1 %hdr, i64 noundef %tileLineSize, i64 noundef %numTileLines, i1 noundef zeroext true)
          to label %return unwind label %lpad21

lpad21:                                           ; preds = %sw.bb19
  %6 = landingpad { ptr, i32 }
          cleanup
  br label %eh.resume

sw.bb23:                                          ; preds = %entry
  %call24 = tail call noalias noundef nonnull dereferenceable(296) ptr @_Znwm(i64 noundef 296) #13
  %conv = trunc i64 %tileLineSize to i32
  %conv25 = trunc i64 %numTileLines to i32
  invoke void @_ZN7Imf_3_213DwaCompressorC1ERKNS_6HeaderEiiNS0_13AcCompressionE(ptr noundef nonnull align 8 dereferenceable(296) %call24, ptr noundef nonnull align 1 %hdr, i32 noundef %conv, i32 noundef %conv25, i32 noundef 1)
          to label %return unwind label %lpad26

lpad26:                                           ; preds = %sw.bb23
  %7 = landingpad { ptr, i32 }
          cleanup
  br label %eh.resume

sw.bb28:                                          ; preds = %entry
  %call29 = tail call noalias noundef nonnull dereferenceable(296) ptr @_Znwm(i64 noundef 296) #13
  %conv30 = trunc i64 %tileLineSize to i32
  %conv31 = trunc i64 %numTileLines to i32
  invoke void @_ZN7Imf_3_213DwaCompressorC1ERKNS_6HeaderEiiNS0_13AcCompressionE(ptr noundef nonnull align 8 dereferenceable(296) %call29, ptr noundef nonnull align 1 %hdr, i32 noundef %conv30, i32 noundef %conv31, i32 noundef 0)
          to label %return unwind label %lpad32

lpad32:                                           ; preds = %sw.bb28
  %8 = landingpad { ptr, i32 }
          cleanup
  br label %eh.resume

return:                                           ; preds = %entry, %sw.bb28, %sw.bb23, %sw.bb19, %sw.bb15, %sw.bb11, %sw.bb7, %sw.bb3, %invoke.cont
  %retval.0 = phi ptr [ %call, %invoke.cont ], [ %call4, %sw.bb3 ], [ %call8, %sw.bb7 ], [ %call12, %sw.bb11 ], [ %call16, %sw.bb15 ], [ %call20, %sw.bb19 ], [ %call24, %sw.bb23 ], [ %call29, %sw.bb28 ], [ null, %entry ]
  ret ptr %retval.0

eh.resume:                                        ; preds = %lpad, %lpad.i, %lpad32, %lpad26, %lpad21, %lpad17, %lpad13, %lpad9, %lpad5
  %call29.sink = phi ptr [ %call29, %lpad32 ], [ %call24, %lpad26 ], [ %call20, %lpad21 ], [ %call16, %lpad17 ], [ %call12, %lpad13 ], [ %call8, %lpad9 ], [ %call4, %lpad5 ], [ %call, %lpad.i ], [ %call, %lpad ]
  %.pn = phi { ptr, i32 } [ %8, %lpad32 ], [ %7, %lpad26 ], [ %6, %lpad21 ], [ %5, %lpad17 ], [ %4, %lpad13 ], [ %3, %lpad9 ], [ %2, %lpad5 ], [ %0, %lpad.i ], [ %1, %lpad ]
  tail call void @_ZdlPv(ptr noundef nonnull %call29.sink) #14
  resume { ptr, i32 } %.pn
}